target datalayout = "e-m:e-p270:32:32-p271:32:32-p272:64:64-i64:64-i128:128-f80:128-n8:16:32:64-S128"
target triple = "x86_64-unknown-linux-gnu"

@_ZTIN6icu_758CollatorE = external constant ptr
@_ZTIN6icu_7517RuleBasedCollatorE = external constant ptr

; Function Attrs: mustprogress nounwind uwtable
define linkonce_odr noundef ptr @_ZN6icu_758Collator13fromUCollatorEPK9UCollator(ptr noundef %uc) #1 comdat align 2 {
entry:
  %uc.addr = alloca ptr, align 8
  store ptr %uc, ptr %uc.addr, align 8
  %0 = load ptr, ptr %uc.addr, align 8
  ret ptr %0
}

; Function Attrs: mustprogress uwtable
define linkonce_odr noundef ptr @_ZN6icu_7517RuleBasedCollator16rbcFromUCollatorEPK9UCollator(ptr noundef %uc) #0 comdat align 2 {
entry:
  %uc.addr = alloca ptr, align 8
  store ptr %uc, ptr %uc.addr, align 8
  %0 = load ptr, ptr %uc.addr, align 8
  %call = call noundef ptr @_ZN6icu_758Collator13fromUCollatorEPK9UCollator(ptr noundef %0)
  %1 = icmp eq ptr %call, null
  br i1 %1, label %dynamic_cast.null, label %dynamic_cast.notnull

dynamic_cast.notnull:                             ; preds = %entry
  %2 = call ptr @__dynamic_cast(ptr %call, ptr @_ZTIN6icu_758CollatorE, ptr @_ZTIN6icu_7517RuleBasedCollatorE, i64 0) #7
  br label %dynamic_cast.end

dynamic_cast.null:                                ; preds = %entry
  br label %dynamic_cast.end

dynamic_cast.end:                                 ; preds = %dynamic_cast.null, %dynamic_cast.notnull
  %3 = phi ptr [ %2, %dynamic_cast.notnull ], [ null, %dynamic_cast.null ]
  ret ptr %3
}

; Function Attrs: mustprogress nounwind uwtable
define internal noundef signext i8 @_ZL9U_FAILURE10UErrorCode(i32 noundef %code) #1 {
entry:
  %code.addr = alloca i32, align 4
  store i32 %code, ptr %code.addr, align 4
  %0 = load i32, ptr %code.addr, align 4
  %cmp = icmp sgt i32 %0, 0
  %conv = zext i1 %cmp to i8
  ret i8 %conv
}

; Function Attrs: mustprogress uwtable
define ptr @ucol_getLocaleByType_75(ptr noundef %coll, i32 noundef %type, ptr noundef %status) #0 {
entry:
  %retval = alloca ptr, align 8
  %coll.addr = alloca ptr, align 8
  %type.addr = alloca i32, align 4
  %status.addr = alloca ptr, align 8
  %result = alloca ptr, align 8
  %rbc = alloca ptr, align 8
  store ptr %coll, ptr %coll.addr, align 8
  store i32 %type, ptr %type.addr, align 4
  store ptr %status, ptr %status.addr, align 8
  %0 = load ptr, ptr %status.addr, align 8
  %1 = load i32, ptr %0, align 4
  %call = call noundef signext i8 @_ZL9U_FAILURE10UErrorCode(i32 noundef %1)
  %tobool = icmp ne i8 %call, 0
  br i1 %tobool, label %if.then, label %if.end

if.then:                                          ; preds = %entry
  store ptr null, ptr %retval, align 8
  br label %return

if.end:                                           ; preds = %entry
  %2 = load ptr, ptr %coll.addr, align 8
  %call1 = call noundef ptr @_ZN6icu_7517RuleBasedCollator16rbcFromUCollatorEPK9UCollator(ptr noundef %2)
  store ptr %call1, ptr %rbc, align 8
  %3 = load ptr, ptr %rbc, align 8
  %cmp = icmp eq ptr %3, null
  br i1 %cmp, label %land.lhs.true, label %if.else

land.lhs.true:                                    ; preds = %if.end
  %4 = load ptr, ptr %coll.addr, align 8
  %cmp2 = icmp ne ptr %4, null
  br i1 %cmp2, label %if.then3, label %if.else

if.then3:                                         ; preds = %land.lhs.true
  %5 = load ptr, ptr %status.addr, align 8
  store i32 16, ptr %5, align 4
  store ptr null, ptr %result, align 8
  br label %if.end5

if.else:                                          ; preds = %land.lhs.true, %if.end
  %6 = load ptr, ptr %rbc, align 8
  %7 = load i32, ptr %type.addr, align 4
  %8 = load ptr, ptr %status.addr, align 8
  %call4 = call noundef ptr @_ZNK6icu_7517RuleBasedCollator19internalGetLocaleIDE18ULocDataLocaleTypeR10UErrorCode(ptr noundef nonnull align 8 dereferenceable(272) %6, i32 noundef %7, ptr noundef nonnull align 4 dereferenceable(4) %8)
  store ptr %call4, ptr %result, align 8
  br label %if.end5

if.end5:                                          ; preds = %if.else, %if.then3
  %9 = load ptr, ptr %result, align 8
  store ptr %9, ptr %retval, align 8
  br label %return

return:                                           ; preds = %if.end5, %if.then
  %10 = load ptr, ptr %retval, align 8
  ret ptr %10
}