; Function Attrs: mustprogress uwtable
define noundef ptr @ucol_getLocaleByType_75(ptr noundef %coll, i32 noundef %type, ptr noundef %status) local_unnamed_addr #0 {
entry:
  %0 = load i32, ptr %status, align 4
  %cmp.i = icmp slt i32 %0, 1
  br i1 %cmp.i, label %if.end, label %return

if.end:                                           ; preds = %entry
  %1 = icmp ne ptr %coll, null
  tail call void @llvm.assume(i1 %1)
  %2 = tail call ptr @__dynamic_cast(ptr nonnull %coll, ptr nonnull @_ZTIN6icu_758CollatorE, ptr nonnull @_ZTIN6icu_7517RuleBasedCollatorE, i64 0) #10
  %cmp = icmp eq ptr %2, null
  br i1 %cmp, label %if.then3, label %if.else

if.then3:                                         ; preds = %if.end
  store i32 16, ptr %status, align 4
  br label %return

if.else:                                          ; preds = %if.end
  %call4 = tail call noundef ptr @_ZNK6icu_7517RuleBasedCollator19internalGetLocaleIDE18ULocDataLocaleTypeR10UErrorCode(ptr noundef nonnull align 8 dereferenceable(272) %2, i32 noundef %type, ptr noundef nonnull align 4 dereferenceable(4) %status)
  br label %return

return:                                           ; preds = %if.then3, %if.else, %entry
  %retval.0 = phi ptr [ null, %entry ], [ null, %if.then3 ], [ %call4, %if.else ]
  ret ptr %retval.0
}